CCS PCM C Compiler, Version 5.015, 5967               01-mar.-18 18:58

               Filename:   C:\Users\Katherine\Documents\Comunicaciones Digitales\Codificador\Decodificador8QAM\Control\Decodificador8QAM.lst

               ROM used:   1237 words (15%)
                           Largest free fragment is 2048
               RAM used:   22 (6%) at main() level
                           39 (11%) worst case
               Stack used: 2 locations (0 in main + 2 for interrupts)
               Stack size: 8

*
0000:  MOVLW  04
0001:  MOVWF  0A
0002:  GOTO   497
0003:  NOP
0004:  MOVWF  7F
0005:  SWAPF  03,W
0006:  CLRF   03
0007:  MOVWF  21
0008:  MOVF   0A,W
0009:  MOVWF  20
000A:  CLRF   0A
000B:  MOVF   04,W
000C:  MOVWF  22
000D:  MOVF   77,W
000E:  MOVWF  23
000F:  MOVF   78,W
0010:  MOVWF  24
0011:  MOVF   79,W
0012:  MOVWF  25
0013:  MOVF   7A,W
0014:  MOVWF  26
0015:  BCF    03.7
0016:  BCF    03.5
0017:  BTFSS  0B.4
0018:  GOTO   01B
0019:  BTFSC  0B.1
001A:  GOTO   02C
001B:  MOVF   22,W
001C:  MOVWF  04
001D:  MOVF   23,W
001E:  MOVWF  77
001F:  MOVF   24,W
0020:  MOVWF  78
0021:  MOVF   25,W
0022:  MOVWF  79
0023:  MOVF   26,W
0024:  MOVWF  7A
0025:  MOVF   20,W
0026:  MOVWF  0A
0027:  SWAPF  21,W
0028:  MOVWF  03
0029:  SWAPF  7F,F
002A:  SWAPF  7F,W
002B:  RETFIE
002C:  BCF    0A.3
002D:  BCF    0A.4
002E:  GOTO   1CA
.................... #include <16F887.h>         // Modify for your chip 
.................... //////////// Standard Header file for the PIC16F887 device //////////////// 
.................... /////////////////////////////////////////////////////////////////////////// 
.................... ////        (C) Copyright 1996, 2013 Custom Computer Services          //// 
.................... //// This source code may only be used by licensed users of the CCS C  //// 
.................... //// compiler.  This source code may only be distributed to other      //// 
.................... //// licensed users of the CCS C compiler.  No other use, reproduction //// 
.................... //// or distribution is permitted without written permission.          //// 
.................... //// Derivative programs created using this software in object code    //// 
.................... //// form are not restricted in any way.                               //// 
.................... /////////////////////////////////////////////////////////////////////////// 
.................... #device PIC16F887 
002F:  MOVLW  8E
0030:  MOVWF  77
0031:  MOVF   33,W
0032:  MOVWF  78
0033:  MOVF   32,W
0034:  MOVWF  79
0035:  CLRF   7A
0036:  MOVF   78,F
0037:  BTFSS  03.2
0038:  GOTO   043
0039:  MOVF   79,W
003A:  MOVWF  78
003B:  CLRF   79
003C:  MOVLW  08
003D:  SUBWF  77,F
003E:  MOVF   78,F
003F:  BTFSS  03.2
0040:  GOTO   043
0041:  CLRF   77
0042:  GOTO   04B
0043:  BCF    03.0
0044:  BTFSC  78.7
0045:  GOTO   04A
0046:  RLF    79,F
0047:  RLF    78,F
0048:  DECF   77,F
0049:  GOTO   043
004A:  BCF    78.7
004B:  RETURN
004C:  MOVF   31,W
004D:  BTFSC  03.2
004E:  GOTO   111
004F:  MOVWF  3D
0050:  MOVF   35,W
0051:  BTFSC  03.2
0052:  GOTO   111
0053:  SUBWF  3D,F
0054:  BTFSS  03.0
0055:  GOTO   05B
0056:  MOVLW  7F
0057:  ADDWF  3D,F
0058:  BTFSC  03.0
0059:  GOTO   111
005A:  GOTO   061
005B:  MOVLW  81
005C:  SUBWF  3D,F
005D:  BTFSS  03.0
005E:  GOTO   111
005F:  BTFSC  03.2
0060:  GOTO   111
0061:  MOVF   3D,W
0062:  MOVWF  77
0063:  CLRF   78
0064:  CLRF   79
0065:  CLRF   7A
0066:  CLRF   3C
0067:  MOVF   32,W
0068:  MOVWF  3B
0069:  BSF    3B.7
006A:  MOVF   33,W
006B:  MOVWF  3A
006C:  MOVF   34,W
006D:  MOVWF  39
006E:  MOVLW  19
006F:  MOVWF  3D
0070:  MOVF   38,W
0071:  SUBWF  39,F
0072:  BTFSC  03.0
0073:  GOTO   084
0074:  MOVLW  01
0075:  SUBWF  3A,F
0076:  BTFSC  03.0
0077:  GOTO   084
0078:  SUBWF  3B,F
0079:  BTFSC  03.0
007A:  GOTO   084
007B:  SUBWF  3C,F
007C:  BTFSC  03.0
007D:  GOTO   084
007E:  INCF   3C,F
007F:  INCF   3B,F
0080:  INCF   3A,F
0081:  MOVF   38,W
0082:  ADDWF  39,F
0083:  GOTO   0B6
0084:  MOVF   37,W
0085:  SUBWF  3A,F
0086:  BTFSC  03.0
0087:  GOTO   09F
0088:  MOVLW  01
0089:  SUBWF  3B,F
008A:  BTFSC  03.0
008B:  GOTO   09F
008C:  SUBWF  3C,F
008D:  BTFSC  03.0
008E:  GOTO   09F
008F:  INCF   3C,F
0090:  INCF   3B,F
0091:  MOVF   37,W
0092:  ADDWF  3A,F
0093:  MOVF   38,W
0094:  ADDWF  39,F
0095:  BTFSS  03.0
0096:  GOTO   0B6
0097:  INCF   3A,F
0098:  BTFSS  03.2
0099:  GOTO   0B6
009A:  INCF   3B,F
009B:  BTFSS  03.2
009C:  GOTO   0B6
009D:  INCF   3C,F
009E:  GOTO   0B6
009F:  MOVF   36,W
00A0:  IORLW  80
00A1:  SUBWF  3B,F
00A2:  BTFSC  03.0
00A3:  GOTO   0B5
00A4:  MOVLW  01
00A5:  SUBWF  3C,F
00A6:  BTFSC  03.0
00A7:  GOTO   0B5
00A8:  INCF   3C,F
00A9:  MOVF   36,W
00AA:  IORLW  80
00AB:  ADDWF  3B,F
00AC:  MOVF   37,W
00AD:  ADDWF  3A,F
00AE:  BTFSS  03.0
00AF:  GOTO   093
00B0:  INCF   3B,F
00B1:  BTFSS  03.2
00B2:  GOTO   093
00B3:  INCF   3C,F
00B4:  GOTO   093
00B5:  BSF    7A.0
00B6:  DECFSZ 3D,F
00B7:  GOTO   0B9
00B8:  GOTO   0C4
00B9:  BCF    03.0
00BA:  RLF    39,F
00BB:  RLF    3A,F
00BC:  RLF    3B,F
00BD:  RLF    3C,F
00BE:  BCF    03.0
00BF:  RLF    7A,F
00C0:  RLF    79,F
00C1:  RLF    78,F
00C2:  RLF    3E,F
00C3:  GOTO   070
00C4:  BTFSS  3E.0
00C5:  GOTO   0CC
00C6:  BCF    03.0
00C7:  RRF    78,F
00C8:  RRF    79,F
00C9:  RRF    7A,F
00CA:  RRF    3E,F
00CB:  GOTO   0CF
00CC:  DECF   77,F
00CD:  BTFSC  03.2
00CE:  GOTO   111
00CF:  BTFSC  3E.7
00D0:  GOTO   0F8
00D1:  BCF    03.0
00D2:  RLF    39,F
00D3:  RLF    3A,F
00D4:  RLF    3B,F
00D5:  RLF    3C,F
00D6:  MOVF   38,W
00D7:  SUBWF  39,F
00D8:  BTFSC  03.0
00D9:  GOTO   0E4
00DA:  MOVLW  01
00DB:  SUBWF  3A,F
00DC:  BTFSC  03.0
00DD:  GOTO   0E4
00DE:  SUBWF  3B,F
00DF:  BTFSC  03.0
00E0:  GOTO   0E4
00E1:  SUBWF  3C,F
00E2:  BTFSS  03.0
00E3:  GOTO   107
00E4:  MOVF   37,W
00E5:  SUBWF  3A,F
00E6:  BTFSC  03.0
00E7:  GOTO   0EF
00E8:  MOVLW  01
00E9:  SUBWF  3B,F
00EA:  BTFSC  03.0
00EB:  GOTO   0EF
00EC:  SUBWF  3C,F
00ED:  BTFSS  03.0
00EE:  GOTO   107
00EF:  MOVF   36,W
00F0:  IORLW  80
00F1:  SUBWF  3B,F
00F2:  BTFSC  03.0
00F3:  GOTO   0F8
00F4:  MOVLW  01
00F5:  SUBWF  3C,F
00F6:  BTFSS  03.0
00F7:  GOTO   107
00F8:  INCF   7A,F
00F9:  BTFSS  03.2
00FA:  GOTO   107
00FB:  INCF   79,F
00FC:  BTFSS  03.2
00FD:  GOTO   107
00FE:  INCF   78,F
00FF:  BTFSS  03.2
0100:  GOTO   107
0101:  INCF   77,F
0102:  BTFSC  03.2
0103:  GOTO   111
0104:  RRF    78,F
0105:  RRF    79,F
0106:  RRF    7A,F
0107:  MOVF   32,W
0108:  MOVWF  3D
0109:  MOVF   36,W
010A:  XORWF  3D,F
010B:  BTFSS  3D.7
010C:  GOTO   10F
010D:  BSF    78.7
010E:  GOTO   115
010F:  BCF    78.7
0110:  GOTO   115
0111:  CLRF   77
0112:  CLRF   78
0113:  CLRF   79
0114:  CLRF   7A
0115:  RETURN
0116:  MOVF   35,W
0117:  BTFSC  03.2
0118:  GOTO   186
0119:  MOVWF  3D
011A:  MOVF   39,W
011B:  BTFSC  03.2
011C:  GOTO   186
011D:  ADDWF  3D,F
011E:  BTFSC  03.0
011F:  GOTO   127
0120:  MOVLW  7F
0121:  SUBWF  3D,F
0122:  BTFSS  03.0
0123:  GOTO   186
0124:  BTFSC  03.2
0125:  GOTO   186
0126:  GOTO   12B
0127:  MOVLW  81
0128:  ADDWF  3D,F
0129:  BTFSC  03.0
012A:  GOTO   186
012B:  MOVF   3D,W
012C:  MOVWF  77
012D:  CLRF   78
012E:  CLRF   79
012F:  CLRF   7A
0130:  MOVF   36,W
0131:  MOVWF  41
0132:  BSF    41.7
0133:  MOVF   37,W
0134:  MOVWF  40
0135:  MOVF   38,W
0136:  MOVWF  3F
0137:  MOVLW  18
0138:  MOVWF  3D
0139:  CLRF   3E
013A:  BTFSS  3F.0
013B:  GOTO   154
013C:  MOVF   3C,W
013D:  ADDWF  7A,F
013E:  BTFSS  03.0
013F:  GOTO   146
0140:  INCF   79,F
0141:  BTFSS  03.2
0142:  GOTO   146
0143:  INCF   78,F
0144:  BTFSC  03.2
0145:  BSF    3E.7
0146:  MOVF   3B,W
0147:  ADDWF  79,F
0148:  BTFSS  03.0
0149:  GOTO   14D
014A:  INCF   78,F
014B:  BTFSC  03.2
014C:  BSF    3E.7
014D:  MOVF   3A,W
014E:  MOVWF  37
014F:  BSF    37.7
0150:  MOVF   37,W
0151:  ADDWF  78,F
0152:  BTFSC  03.0
0153:  BSF    3E.7
0154:  RLF    3E,F
0155:  RRF    78,F
0156:  RRF    79,F
0157:  RRF    7A,F
0158:  RRF    41,F
0159:  RRF    40,F
015A:  RRF    3F,F
015B:  BCF    03.0
015C:  DECFSZ 3D,F
015D:  GOTO   139
015E:  MOVLW  01
015F:  ADDWF  77,F
0160:  BTFSC  03.0
0161:  GOTO   186
0162:  BTFSC  78.7
0163:  GOTO   16B
0164:  RLF    41,F
0165:  RLF    7A,F
0166:  RLF    79,F
0167:  RLF    78,F
0168:  DECF   77,F
0169:  BTFSC  03.2
016A:  GOTO   186
016B:  BTFSS  41.7
016C:  GOTO   17C
016D:  INCF   7A,F
016E:  BTFSS  03.2
016F:  GOTO   17C
0170:  INCF   79,F
0171:  BTFSS  03.2
0172:  GOTO   17C
0173:  INCF   78,F
0174:  BTFSS  03.2
0175:  GOTO   17C
0176:  RRF    78,F
0177:  RRF    79,F
0178:  RRF    7A,F
0179:  INCF   77,F
017A:  BTFSC  03.2
017B:  GOTO   186
017C:  MOVF   36,W
017D:  MOVWF  3E
017E:  MOVF   3A,W
017F:  XORWF  3E,F
0180:  BTFSS  3E.7
0181:  GOTO   184
0182:  BSF    78.7
0183:  GOTO   18A
0184:  BCF    78.7
0185:  GOTO   18A
0186:  CLRF   77
0187:  CLRF   78
0188:  CLRF   79
0189:  CLRF   7A
018A:  RETURN
018B:  MOVF   33,W
018C:  MOVWF  3A
018D:  MOVF   37,W
018E:  XORWF  3A,F
018F:  BTFSS  3A.7
0190:  GOTO   196
0191:  BCF    03.2
0192:  BCF    03.0
0193:  BTFSC  33.7
0194:  BSF    03.0
0195:  GOTO   1C9
0196:  MOVF   33,W
0197:  MOVWF  3A
0198:  MOVF   36,W
0199:  MOVWF  3B
019A:  MOVF   32,W
019B:  SUBWF  3B,F
019C:  BTFSC  03.2
019D:  GOTO   1A4
019E:  BTFSS  3A.7
019F:  GOTO   1C9
01A0:  MOVF   03,W
01A1:  XORLW  01
01A2:  MOVWF  03
01A3:  GOTO   1C9
01A4:  MOVF   37,W
01A5:  MOVWF  3B
01A6:  MOVF   33,W
01A7:  SUBWF  3B,F
01A8:  BTFSC  03.2
01A9:  GOTO   1B0
01AA:  BTFSS  3A.7
01AB:  GOTO   1C9
01AC:  MOVF   03,W
01AD:  XORLW  01
01AE:  MOVWF  03
01AF:  GOTO   1C9
01B0:  MOVF   38,W
01B1:  MOVWF  3B
01B2:  MOVF   34,W
01B3:  SUBWF  3B,F
01B4:  BTFSC  03.2
01B5:  GOTO   1BC
01B6:  BTFSS  3A.7
01B7:  GOTO   1C9
01B8:  MOVF   03,W
01B9:  XORLW  01
01BA:  MOVWF  03
01BB:  GOTO   1C9
01BC:  MOVF   39,W
01BD:  MOVWF  3B
01BE:  MOVF   35,W
01BF:  SUBWF  3B,F
01C0:  BTFSC  03.2
01C1:  GOTO   1C8
01C2:  BTFSS  3A.7
01C3:  GOTO   1C9
01C4:  MOVF   03,W
01C5:  XORLW  01
01C6:  MOVWF  03
01C7:  GOTO   1C9
01C8:  BCF    03.0
01C9:  RETURN
....................  
.................... #list 
....................  
....................  
.................... #DEVICE ADC = 10 
....................  
.................... #fuses NOMCLR //Se configura master clear 
.................... #fuses NOWDT  //Se indican los fuses activos/inactivos. Y el indicativo de alta velocidad 
....................  
.................... #use delay(clock=20M) 
....................  
.................... //#include <lcd.c> 
.................... //Se ubican los registros de configuracion de puertos 
....................  
.................... #Byte TRISA = 0x85  
.................... #Byte PORTA = 0x05 
.................... #Byte TRISB = 0x86 
.................... #Byte PORTB = 0x06 
....................  
.................... //#fuses XT,NOMCLR,NOWDT,PUT,NOLVP... 
....................  
.................... //en XT le dice al pic que lleva un oscilador conectado <4mhz 
.................... //el NOMCLR le dice al pic que deshabilita el pin masterclear, desactiva el reset externo por el pic MCLR 
.................... //el NOWDT le dice al pic que deshabilita el Watchdog timer "perro guardian" 
.................... //el PUT habilita el Power Up Timer, tiempo de espera para estabilizacion de alimentacion 
.................... //el NOLVP deshabilita un pin asignado para la programacion de bajo voltaje... low voltage programing 
....................  
.................... #DEFINE S PIN_A0 
.................... //#DEFINE I PIN_AN5 
.................... //#DEFINE Q PIN_AN6 
....................  
.................... float vI,vQ; 
.................... int p,cuenta; 
....................  
.................... #int_EXT 
.................... void control(){ 
....................     
....................       set_adc_channel(5); 
01CA:  MOVLW  14
01CB:  MOVWF  78
01CC:  MOVF   1F,W
01CD:  ANDLW  C3
01CE:  IORWF  78,W
01CF:  MOVWF  1F
....................       vI=read_adc(); 
01D0:  BSF    1F.1
01D1:  BTFSC  1F.1
01D2:  GOTO   1D1
01D3:  MOVF   1E,W
01D4:  MOVWF  7A
01D5:  BSF    03.5
01D6:  MOVF   1E,W
01D7:  BCF    03.5
01D8:  MOVWF  32
01D9:  MOVF   1E,W
01DA:  MOVWF  33
01DB:  CALL   02F
01DC:  MOVF   7A,W
01DD:  MOVWF  2A
01DE:  MOVF   79,W
01DF:  MOVWF  29
01E0:  MOVF   78,W
01E1:  MOVWF  28
01E2:  MOVF   77,W
01E3:  MOVWF  27
....................       vI=(vI/1024)*5; 
01E4:  MOVF   2A,W
01E5:  MOVWF  34
01E6:  MOVF   29,W
01E7:  MOVWF  33
01E8:  MOVF   28,W
01E9:  MOVWF  32
01EA:  MOVF   27,W
01EB:  MOVWF  31
01EC:  CLRF   38
01ED:  CLRF   37
01EE:  CLRF   36
01EF:  MOVLW  89
01F0:  MOVWF  35
01F1:  CALL   04C
01F2:  MOVF   7A,W
01F3:  MOVWF  34
01F4:  MOVF   79,W
01F5:  MOVWF  33
01F6:  MOVF   78,W
01F7:  MOVWF  32
01F8:  MOVF   77,W
01F9:  MOVWF  31
01FA:  MOVF   7A,W
01FB:  MOVWF  38
01FC:  MOVF   79,W
01FD:  MOVWF  37
01FE:  MOVF   78,W
01FF:  MOVWF  36
0200:  MOVF   77,W
0201:  MOVWF  35
0202:  CLRF   3C
0203:  CLRF   3B
0204:  MOVLW  20
0205:  MOVWF  3A
0206:  MOVLW  81
0207:  MOVWF  39
0208:  CALL   116
0209:  MOVF   7A,W
020A:  MOVWF  2A
020B:  MOVF   79,W
020C:  MOVWF  29
020D:  MOVF   78,W
020E:  MOVWF  28
020F:  MOVF   77,W
0210:  MOVWF  27
....................       //lcd_gotoxy(1,1); 
....................       //printf(lcd_putc,"Voltaje = %.2f V", vI); 
....................       set_adc_channel(6); 
0211:  MOVLW  18
0212:  MOVWF  78
0213:  MOVF   1F,W
0214:  ANDLW  C3
0215:  IORWF  78,W
0216:  MOVWF  1F
....................       vQ=read_adc(); 
0217:  BSF    1F.1
0218:  BTFSC  1F.1
0219:  GOTO   218
021A:  MOVF   1E,W
021B:  MOVWF  7A
021C:  BSF    03.5
021D:  MOVF   1E,W
021E:  BCF    03.5
021F:  MOVWF  32
0220:  MOVF   1E,W
0221:  MOVWF  33
0222:  CALL   02F
0223:  MOVF   7A,W
0224:  MOVWF  2E
0225:  MOVF   79,W
0226:  MOVWF  2D
0227:  MOVF   78,W
0228:  MOVWF  2C
0229:  MOVF   77,W
022A:  MOVWF  2B
....................       vQ=(vQ/1024)*5; 
022B:  MOVF   2E,W
022C:  MOVWF  34
022D:  MOVF   2D,W
022E:  MOVWF  33
022F:  MOVF   2C,W
0230:  MOVWF  32
0231:  MOVF   2B,W
0232:  MOVWF  31
0233:  CLRF   38
0234:  CLRF   37
0235:  CLRF   36
0236:  MOVLW  89
0237:  MOVWF  35
0238:  CALL   04C
0239:  MOVF   7A,W
023A:  MOVWF  34
023B:  MOVF   79,W
023C:  MOVWF  33
023D:  MOVF   78,W
023E:  MOVWF  32
023F:  MOVF   77,W
0240:  MOVWF  31
0241:  MOVF   7A,W
0242:  MOVWF  38
0243:  MOVF   79,W
0244:  MOVWF  37
0245:  MOVF   78,W
0246:  MOVWF  36
0247:  MOVF   77,W
0248:  MOVWF  35
0249:  CLRF   3C
024A:  CLRF   3B
024B:  MOVLW  20
024C:  MOVWF  3A
024D:  MOVLW  81
024E:  MOVWF  39
024F:  CALL   116
0250:  MOVF   7A,W
0251:  MOVWF  2E
0252:  MOVF   79,W
0253:  MOVWF  2D
0254:  MOVF   78,W
0255:  MOVWF  2C
0256:  MOVF   77,W
0257:  MOVWF  2B
....................       //lcd_gotoxy(1,2); 
....................       //printf(lcd_putc,"Voltaje = %.2f V", vQ); 
....................       if(1.875<vI<=3.125){ //i=2.5V  [000,010] 
0258:  CLRF   35
0259:  CLRF   34
025A:  MOVLW  70
025B:  MOVWF  33
025C:  MOVLW  7F
025D:  MOVWF  32
025E:  MOVF   2A,W
025F:  MOVWF  39
0260:  MOVF   29,W
0261:  MOVWF  38
0262:  MOVF   28,W
0263:  MOVWF  37
0264:  MOVF   27,W
0265:  MOVWF  36
0266:  CALL   18B
0267:  MOVLW  00
0268:  BTFSC  03.0
0269:  MOVLW  01
026A:  CLRF   33
026B:  MOVWF  32
026C:  CALL   02F
026D:  MOVF   7A,W
026E:  MOVWF  35
026F:  MOVF   79,W
0270:  MOVWF  34
0271:  MOVF   78,W
0272:  MOVWF  33
0273:  MOVF   77,W
0274:  MOVWF  32
0275:  CLRF   39
0276:  CLRF   38
0277:  MOVLW  48
0278:  MOVWF  37
0279:  MOVLW  80
027A:  MOVWF  36
027B:  CALL   18B
027C:  BTFSC  03.0
027D:  GOTO   280
027E:  BTFSS  03.2
027F:  GOTO   2D2
....................         if(3.125<vQ<=4.375){ //q=3.75  [000] 
0280:  CLRF   35
0281:  CLRF   34
0282:  MOVLW  48
0283:  MOVWF  33
0284:  MOVLW  80
0285:  MOVWF  32
0286:  MOVF   2E,W
0287:  MOVWF  39
0288:  MOVF   2D,W
0289:  MOVWF  38
028A:  MOVF   2C,W
028B:  MOVWF  37
028C:  MOVF   2B,W
028D:  MOVWF  36
028E:  CALL   18B
028F:  MOVLW  00
0290:  BTFSC  03.0
0291:  MOVLW  01
0292:  CLRF   33
0293:  MOVWF  32
0294:  CALL   02F
0295:  MOVF   7A,W
0296:  MOVWF  35
0297:  MOVF   79,W
0298:  MOVWF  34
0299:  MOVF   78,W
029A:  MOVWF  33
029B:  MOVF   77,W
029C:  MOVWF  32
029D:  CLRF   39
029E:  CLRF   38
029F:  MOVLW  0C
02A0:  MOVWF  37
02A1:  MOVLW  81
02A2:  MOVWF  36
02A3:  CALL   18B
02A4:  BTFSC  03.0
02A5:  GOTO   2A7
02A6:  BTFSC  03.2
....................             p=0; 
02A7:  CLRF   2F
....................         }if(0.625<vQ<=1.875){  //q=1.25    [010] 
02A8:  CLRF   35
02A9:  CLRF   34
02AA:  MOVLW  20
02AB:  MOVWF  33
02AC:  MOVLW  7E
02AD:  MOVWF  32
02AE:  MOVF   2E,W
02AF:  MOVWF  39
02B0:  MOVF   2D,W
02B1:  MOVWF  38
02B2:  MOVF   2C,W
02B3:  MOVWF  37
02B4:  MOVF   2B,W
02B5:  MOVWF  36
02B6:  CALL   18B
02B7:  MOVLW  00
02B8:  BTFSC  03.0
02B9:  MOVLW  01
02BA:  CLRF   33
02BB:  MOVWF  32
02BC:  CALL   02F
02BD:  MOVF   7A,W
02BE:  MOVWF  35
02BF:  MOVF   79,W
02C0:  MOVWF  34
02C1:  MOVF   78,W
02C2:  MOVWF  33
02C3:  MOVF   77,W
02C4:  MOVWF  32
02C5:  CLRF   39
02C6:  CLRF   38
02C7:  MOVLW  70
02C8:  MOVWF  37
02C9:  MOVLW  7F
02CA:  MOVWF  36
02CB:  CALL   18B
02CC:  BTFSC  03.0
02CD:  GOTO   2D0
02CE:  BTFSS  03.2
02CF:  GOTO   2D2
....................             p=2; 
02D0:  MOVLW  02
02D1:  MOVWF  2F
....................         } 
....................       }if(0.625<vI<=1.875 && 1.875<vQ<=3.125){   //i=1.25   [001] 
02D2:  CLRF   35
02D3:  CLRF   34
02D4:  MOVLW  20
02D5:  MOVWF  33
02D6:  MOVLW  7E
02D7:  MOVWF  32
02D8:  MOVF   2A,W
02D9:  MOVWF  39
02DA:  MOVF   29,W
02DB:  MOVWF  38
02DC:  MOVF   28,W
02DD:  MOVWF  37
02DE:  MOVF   27,W
02DF:  MOVWF  36
02E0:  CALL   18B
02E1:  MOVLW  00
02E2:  BTFSC  03.0
02E3:  MOVLW  01
02E4:  CLRF   33
02E5:  MOVWF  32
02E6:  CALL   02F
02E7:  MOVF   7A,W
02E8:  MOVWF  35
02E9:  MOVF   79,W
02EA:  MOVWF  34
02EB:  MOVF   78,W
02EC:  MOVWF  33
02ED:  MOVF   77,W
02EE:  MOVWF  32
02EF:  CLRF   39
02F0:  CLRF   38
02F1:  MOVLW  70
02F2:  MOVWF  37
02F3:  MOVLW  7F
02F4:  MOVWF  36
02F5:  CALL   18B
02F6:  BTFSC  03.0
02F7:  GOTO   2FA
02F8:  BTFSS  03.2
02F9:  GOTO   324
02FA:  CLRF   35
02FB:  CLRF   34
02FC:  MOVLW  70
02FD:  MOVWF  33
02FE:  MOVLW  7F
02FF:  MOVWF  32
0300:  MOVF   2E,W
0301:  MOVWF  39
0302:  MOVF   2D,W
0303:  MOVWF  38
0304:  MOVF   2C,W
0305:  MOVWF  37
0306:  MOVF   2B,W
0307:  MOVWF  36
0308:  CALL   18B
0309:  MOVLW  00
030A:  BTFSC  03.0
030B:  MOVLW  01
030C:  CLRF   33
030D:  MOVWF  32
030E:  CALL   02F
030F:  MOVF   7A,W
0310:  MOVWF  35
0311:  MOVF   79,W
0312:  MOVWF  34
0313:  MOVF   78,W
0314:  MOVWF  33
0315:  MOVF   77,W
0316:  MOVWF  32
0317:  CLRF   39
0318:  CLRF   38
0319:  MOVLW  48
031A:  MOVWF  37
031B:  MOVLW  80
031C:  MOVWF  36
031D:  CALL   18B
031E:  BTFSC  03.0
031F:  GOTO   322
0320:  BTFSS  03.2
0321:  GOTO   324
....................          p=1; 
0322:  MOVLW  01
0323:  MOVWF  2F
....................       }if(3.125<vI<=4.375 && 1.875<vQ<=3.125){    //i=3.75  [011] 
0324:  CLRF   35
0325:  CLRF   34
0326:  MOVLW  48
0327:  MOVWF  33
0328:  MOVLW  80
0329:  MOVWF  32
032A:  MOVF   2A,W
032B:  MOVWF  39
032C:  MOVF   29,W
032D:  MOVWF  38
032E:  MOVF   28,W
032F:  MOVWF  37
0330:  MOVF   27,W
0331:  MOVWF  36
0332:  CALL   18B
0333:  MOVLW  00
0334:  BTFSC  03.0
0335:  MOVLW  01
0336:  CLRF   33
0337:  MOVWF  32
0338:  CALL   02F
0339:  MOVF   7A,W
033A:  MOVWF  35
033B:  MOVF   79,W
033C:  MOVWF  34
033D:  MOVF   78,W
033E:  MOVWF  33
033F:  MOVF   77,W
0340:  MOVWF  32
0341:  CLRF   39
0342:  CLRF   38
0343:  MOVLW  0C
0344:  MOVWF  37
0345:  MOVLW  81
0346:  MOVWF  36
0347:  CALL   18B
0348:  BTFSC  03.0
0349:  GOTO   34C
034A:  BTFSS  03.2
034B:  GOTO   376
034C:  CLRF   35
034D:  CLRF   34
034E:  MOVLW  70
034F:  MOVWF  33
0350:  MOVLW  7F
0351:  MOVWF  32
0352:  MOVF   2E,W
0353:  MOVWF  39
0354:  MOVF   2D,W
0355:  MOVWF  38
0356:  MOVF   2C,W
0357:  MOVWF  37
0358:  MOVF   2B,W
0359:  MOVWF  36
035A:  CALL   18B
035B:  MOVLW  00
035C:  BTFSC  03.0
035D:  MOVLW  01
035E:  CLRF   33
035F:  MOVWF  32
0360:  CALL   02F
0361:  MOVF   7A,W
0362:  MOVWF  35
0363:  MOVF   79,W
0364:  MOVWF  34
0365:  MOVF   78,W
0366:  MOVWF  33
0367:  MOVF   77,W
0368:  MOVWF  32
0369:  CLRF   39
036A:  CLRF   38
036B:  MOVLW  48
036C:  MOVWF  37
036D:  MOVLW  80
036E:  MOVWF  36
036F:  CALL   18B
0370:  BTFSC  03.0
0371:  GOTO   374
0372:  BTFSS  03.2
0373:  GOTO   376
....................          p=3; 
0374:  MOVLW  03
0375:  MOVWF  2F
....................       }if(4.375<vQ<=5){   //i=5   [100,111] 
0376:  CLRF   35
0377:  CLRF   34
0378:  MOVLW  0C
0379:  MOVWF  33
037A:  MOVLW  81
037B:  MOVWF  32
037C:  MOVF   2E,W
037D:  MOVWF  39
037E:  MOVF   2D,W
037F:  MOVWF  38
0380:  MOVF   2C,W
0381:  MOVWF  37
0382:  MOVF   2B,W
0383:  MOVWF  36
0384:  CALL   18B
0385:  MOVLW  00
0386:  BTFSC  03.0
0387:  MOVLW  01
0388:  SUBLW  05
0389:  BTFSS  03.0
038A:  GOTO   3CE
....................          if(4.375<vQ<=5){  //q=5 [100] 
038B:  CLRF   35
038C:  CLRF   34
038D:  MOVLW  0C
038E:  MOVWF  33
038F:  MOVLW  81
0390:  MOVWF  32
0391:  MOVF   2E,W
0392:  MOVWF  39
0393:  MOVF   2D,W
0394:  MOVWF  38
0395:  MOVF   2C,W
0396:  MOVWF  37
0397:  MOVF   2B,W
0398:  MOVWF  36
0399:  CALL   18B
039A:  MOVLW  00
039B:  BTFSC  03.0
039C:  MOVLW  01
039D:  SUBLW  05
039E:  BTFSS  03.0
039F:  GOTO   3A2
....................             p=4; 
03A0:  MOVLW  04
03A1:  MOVWF  2F
....................          } 
....................          if(0<=vQ<=0.625){    //q=0  [111] 
03A2:  CLRF   35
03A3:  CLRF   34
03A4:  CLRF   33
03A5:  CLRF   32
03A6:  MOVF   2E,W
03A7:  MOVWF  39
03A8:  MOVF   2D,W
03A9:  MOVWF  38
03AA:  MOVF   2C,W
03AB:  MOVWF  37
03AC:  MOVF   2B,W
03AD:  MOVWF  36
03AE:  CALL   18B
03AF:  BTFSC  03.0
03B0:  GOTO   3B5
03B1:  BTFSC  03.2
03B2:  GOTO   3B5
03B3:  MOVLW  00
03B4:  GOTO   3B6
03B5:  MOVLW  01
03B6:  CLRF   33
03B7:  MOVWF  32
03B8:  CALL   02F
03B9:  MOVF   7A,W
03BA:  MOVWF  35
03BB:  MOVF   79,W
03BC:  MOVWF  34
03BD:  MOVF   78,W
03BE:  MOVWF  33
03BF:  MOVF   77,W
03C0:  MOVWF  32
03C1:  CLRF   39
03C2:  CLRF   38
03C3:  MOVLW  20
03C4:  MOVWF  37
03C5:  MOVLW  7E
03C6:  MOVWF  36
03C7:  CALL   18B
03C8:  BTFSC  03.0
03C9:  GOTO   3CC
03CA:  BTFSS  03.2
03CB:  GOTO   3CE
....................             p=7; 
03CC:  MOVLW  07
03CD:  MOVWF  2F
....................          } 
....................       }if(0<=vI<=0.625){   // 
03CE:  CLRF   35
03CF:  CLRF   34
03D0:  CLRF   33
03D1:  CLRF   32
03D2:  MOVF   2A,W
03D3:  MOVWF  39
03D4:  MOVF   29,W
03D5:  MOVWF  38
03D6:  MOVF   28,W
03D7:  MOVWF  37
03D8:  MOVF   27,W
03D9:  MOVWF  36
03DA:  CALL   18B
03DB:  BTFSC  03.0
03DC:  GOTO   3E1
03DD:  BTFSC  03.2
03DE:  GOTO   3E1
03DF:  MOVLW  00
03E0:  GOTO   3E2
03E1:  MOVLW  01
03E2:  CLRF   33
03E3:  MOVWF  32
03E4:  CALL   02F
03E5:  MOVF   7A,W
03E6:  MOVWF  35
03E7:  MOVF   79,W
03E8:  MOVWF  34
03E9:  MOVF   78,W
03EA:  MOVWF  33
03EB:  MOVF   77,W
03EC:  MOVWF  32
03ED:  CLRF   39
03EE:  CLRF   38
03EF:  MOVLW  20
03F0:  MOVWF  37
03F1:  MOVLW  7E
03F2:  MOVWF  36
03F3:  CALL   18B
03F4:  BTFSC  03.0
03F5:  GOTO   3F8
03F6:  BTFSS  03.2
03F7:  GOTO   43B
....................          if(4.375<vQ<=5){ 
03F8:  CLRF   35
03F9:  CLRF   34
03FA:  MOVLW  0C
03FB:  MOVWF  33
03FC:  MOVLW  81
03FD:  MOVWF  32
03FE:  MOVF   2E,W
03FF:  MOVWF  39
0400:  MOVF   2D,W
0401:  MOVWF  38
0402:  MOVF   2C,W
0403:  MOVWF  37
0404:  MOVF   2B,W
0405:  MOVWF  36
0406:  CALL   18B
0407:  MOVLW  00
0408:  BTFSC  03.0
0409:  MOVLW  01
040A:  SUBLW  05
040B:  BTFSS  03.0
040C:  GOTO   40F
....................             p=5; 
040D:  MOVLW  05
040E:  MOVWF  2F
....................          } 
....................          if(0<=vQ<=0.625){ 
040F:  CLRF   35
0410:  CLRF   34
0411:  CLRF   33
0412:  CLRF   32
0413:  MOVF   2E,W
0414:  MOVWF  39
0415:  MOVF   2D,W
0416:  MOVWF  38
0417:  MOVF   2C,W
0418:  MOVWF  37
0419:  MOVF   2B,W
041A:  MOVWF  36
041B:  CALL   18B
041C:  BTFSC  03.0
041D:  GOTO   422
041E:  BTFSC  03.2
041F:  GOTO   422
0420:  MOVLW  00
0421:  GOTO   423
0422:  MOVLW  01
0423:  CLRF   33
0424:  MOVWF  32
0425:  CALL   02F
0426:  MOVF   7A,W
0427:  MOVWF  35
0428:  MOVF   79,W
0429:  MOVWF  34
042A:  MOVF   78,W
042B:  MOVWF  33
042C:  MOVF   77,W
042D:  MOVWF  32
042E:  CLRF   39
042F:  CLRF   38
0430:  MOVLW  20
0431:  MOVWF  37
0432:  MOVLW  7E
0433:  MOVWF  36
0434:  CALL   18B
0435:  BTFSC  03.0
0436:  GOTO   439
0437:  BTFSS  03.2
0438:  GOTO   43B
....................             p=6; 
0439:  MOVLW  06
043A:  MOVWF  2F
....................          } 
....................       } 
....................       if(cuenta=3){ 
043B:  MOVLW  03
043C:  MOVWF  30
043D:  MOVF   30,F
043E:  BTFSS  03.2
....................          cuenta=0; 
043F:  CLRF   30
....................       } 
....................       switch (cuenta){ 
0440:  MOVF   30,W
0441:  BTFSC  03.2
0442:  GOTO   44A
0443:  XORLW  01
0444:  BTFSC  03.2
0445:  GOTO   462
0446:  XORLW  03
0447:  BTFSC  03.2
0448:  GOTO   47A
0449:  GOTO   492
....................          case 0: 
....................             if(p==0 || p==1 || p==2 || p==3){ 
044A:  MOVF   2F,F
044B:  BTFSC  03.2
044C:  GOTO   458
044D:  DECFSZ 2F,W
044E:  GOTO   450
044F:  GOTO   458
0450:  MOVF   2F,W
0451:  SUBLW  02
0452:  BTFSC  03.2
0453:  GOTO   458
0454:  MOVF   2F,W
0455:  SUBLW  03
0456:  BTFSS  03.2
0457:  GOTO   45D
....................                output_low(S); 
0458:  BSF    03.5
0459:  BCF    05.0
045A:  BCF    03.5
045B:  BCF    05.0
....................             }else{  
045C:  GOTO   461
....................                output_high(S); 
045D:  BSF    03.5
045E:  BCF    05.0
045F:  BCF    03.5
0460:  BSF    05.0
....................             } 
....................             break; 
0461:  GOTO   492
....................          case 1: 
....................              if(p==0 || p==1 || p==4 || p==5){ 
0462:  MOVF   2F,F
0463:  BTFSC  03.2
0464:  GOTO   470
0465:  DECFSZ 2F,W
0466:  GOTO   468
0467:  GOTO   470
0468:  MOVF   2F,W
0469:  SUBLW  04
046A:  BTFSC  03.2
046B:  GOTO   470
046C:  MOVF   2F,W
046D:  SUBLW  05
046E:  BTFSS  03.2
046F:  GOTO   475
....................                output_low(S); 
0470:  BSF    03.5
0471:  BCF    05.0
0472:  BCF    03.5
0473:  BCF    05.0
....................             }else{  
0474:  GOTO   479
....................                output_high(S); 
0475:  BSF    03.5
0476:  BCF    05.0
0477:  BCF    03.5
0478:  BSF    05.0
....................             }break; 
0479:  GOTO   492
....................          case 2: 
....................             if(p==0 || p==2 || p==4 || p==6){ 
047A:  MOVF   2F,F
047B:  BTFSC  03.2
047C:  GOTO   489
047D:  MOVF   2F,W
047E:  SUBLW  02
047F:  BTFSC  03.2
0480:  GOTO   489
0481:  MOVF   2F,W
0482:  SUBLW  04
0483:  BTFSC  03.2
0484:  GOTO   489
0485:  MOVF   2F,W
0486:  SUBLW  06
0487:  BTFSS  03.2
0488:  GOTO   48E
....................                output_low(S); 
0489:  BSF    03.5
048A:  BCF    05.0
048B:  BCF    03.5
048C:  BCF    05.0
....................             }else{  
048D:  GOTO   492
....................                output_high(S); 
048E:  BSF    03.5
048F:  BCF    05.0
0490:  BCF    03.5
0491:  BSF    05.0
....................             }break;       
....................       }cuenta++; 
0492:  INCF   30,F
....................        
0493:  BCF    0B.1
0494:  BCF    0A.3
0495:  BCF    0A.4
0496:  GOTO   01B
.................... } 
....................  
.................... void main(void) { 
0497:  MOVF   03,W
0498:  ANDLW  1F
0499:  MOVWF  03
049A:  BSF    03.5
049B:  BSF    03.6
049C:  MOVF   09,W
049D:  ANDLW  C0
049E:  MOVWF  09
049F:  BCF    03.6
04A0:  BCF    1F.4
04A1:  BCF    1F.5
04A2:  MOVLW  00
04A3:  BSF    03.6
04A4:  MOVWF  08
04A5:  BCF    03.5
04A6:  CLRF   07
04A7:  CLRF   08
04A8:  CLRF   09
04A9:  BCF    03.7
.................... vI=0; 
04AA:  BCF    03.6
04AB:  CLRF   2A
04AC:  CLRF   29
04AD:  CLRF   28
04AE:  CLRF   27
.................... vQ=0; 
04AF:  CLRF   2E
04B0:  CLRF   2D
04B1:  CLRF   2C
04B2:  CLRF   2B
.................... p=0; 
04B3:  CLRF   2F
.................... cuenta=0; 
04B4:  CLRF   30
.................... //Entradas y salidas 
.................... enable_interrupts(int_ext);      //activar interrupcion externa 
04B5:  BSF    0B.4
.................... ext_int_edge(H_TO_L);         //configuracion:interrupcion cuando señal esta en flanco de subida 
04B6:  BSF    03.5
04B7:  BCF    01.6
.................... enable_interrupts(GLOBAL);  
04B8:  MOVLW  C0
04B9:  BCF    03.5
04BA:  IORWF  0B,F
....................  
.................... //lcd_init(); 
.................... setup_adc_ports(5,6); 
04BB:  BSF    03.5
04BC:  BSF    03.6
04BD:  MOVF   09,W
04BE:  ANDLW  C0
04BF:  MOVWF  09
04C0:  BCF    03.6
04C1:  BCF    1F.4
04C2:  BCF    1F.5
04C3:  MOVLW  07
04C4:  BSF    03.6
04C5:  MOVWF  08
.................... setup_adc(ADC_CLOCK_DIV_32); 
04C6:  BCF    03.5
04C7:  BCF    03.6
04C8:  BCF    1F.6
04C9:  BSF    1F.7
04CA:  BSF    03.5
04CB:  BSF    1F.7
04CC:  BCF    03.5
04CD:  BSF    1F.0
....................  
.................... TRISA = 0b00000000; //1 = ENTRADA, 0 = SALIDA 
04CE:  BSF    03.5
04CF:  CLRF   05
.................... //enable_interrupts(GLOBAL);      //todas las interrupciones desactivadas 
.................... output_low(S); 
04D0:  BCF    05.0
04D1:  BCF    03.5
04D2:  BCF    05.0
....................  
....................     while(true) {           // Produces a 1khz square wave on pin B0 
04D3:  GOTO   4D3
....................           
....................       } 
.................... } 
04D4:  SLEEP

Configuration Fuses:
   Word  1: 2FC7   RC NOWDT PUT NOMCLR NOPROTECT NOCPD BROWNOUT IESO FCMEN NOLVP NODEBUG
   Word  2: 3FFF   BORV40 NOWRT
